; Function Attrs: mustprogress uwtable
define void @jsonnet_tla_var(ptr noundef %0, ptr noundef %1, ptr noundef %2) local_unnamed_addr #6 personality ptr @__gxx_personality_v0 {
  %4 = alloca %"struct.jsonnet::internal::VmExt", align 8
  %5 = alloca %"class.std::__cxx11::basic_string", align 8
  %6 = alloca %"class.std::allocator.13", align 1
  %7 = alloca %"class.std::__cxx11::basic_string", align 8
  %8 = alloca %"class.std::allocator.13", align 1
  call void @_ZNSaIcEC1Ev(ptr noundef nonnull align 1 dereferenceable(1) %6) #30
  %9 = invoke noundef ptr @_ZNSt7__cxx1112basic_stringIcSt11char_traitsIcESaIcEE13_M_local_dataEv(ptr noundef nonnull align 8 dereferenceable(32) %5)
          to label %.noexc unwind label %36

.noexc:                                           ; preds = %3
  invoke void @_ZNSt7__cxx1112basic_stringIcSt11char_traitsIcESaIcEE12_Alloc_hiderC1EPcRKS3_(ptr noundef nonnull align 8 dereferenceable(8) %5, ptr noundef %9, ptr noundef nonnull align 1 dereferenceable(1) %6)
          to label %.noexc10 unwind label %36

.noexc10:                                         ; preds = %.noexc
  %10 = icmp eq ptr %2, null
  br i1 %10, label %11, label %15

11:                                               ; preds = %.noexc10
  invoke void @_ZSt19__throw_logic_errorPKc(ptr noundef nonnull @.str.54) #32
          to label %12 unwind label %13

12:                                               ; preds = %11
  unreachable

13:                                               ; preds = %15, %11
  %14 = landingpad { ptr, i32 }
          cleanup
  call void @_ZNSaIcED2Ev(ptr noundef nonnull align 1 dereferenceable(1) %5) #30
  br label %.body

15:                                               ; preds = %.noexc10
  %16 = call noundef i64 @strlen(ptr noundef nonnull dereferenceable(1) %2) #30
  %17 = getelementptr inbounds i8, ptr %2, i64 %16
  invoke void @_ZNSt7__cxx1112basic_stringIcSt11char_traitsIcESaIcEE12_M_constructIPKcEEvT_S8_St20forward_iterator_tag(ptr noundef nonnull align 8 dereferenceable(32) %5, ptr noundef nonnull %2, ptr noundef nonnull %17)
          to label %_ZNSt7__cxx1112basic_stringIcSt11char_traitsIcESaIcEEC2IS3_EEPKcRKS3_.exit unwind label %13

_ZNSt7__cxx1112basic_stringIcSt11char_traitsIcESaIcEEC2IS3_EEPKcRKS3_.exit: ; preds = %15
  invoke void @_ZNSt7__cxx1112basic_stringIcSt11char_traitsIcESaIcEEC1ERKS4_(ptr noundef nonnull align 8 dereferenceable(32) %4, ptr noundef nonnull align 8 dereferenceable(32) %5)
          to label %18 unwind label %38

18:                                               ; preds = %_ZNSt7__cxx1112basic_stringIcSt11char_traitsIcESaIcEEC2IS3_EEPKcRKS3_.exit
  %19 = getelementptr inbounds i8, ptr %4, i64 32
  store i8 0, ptr %19, align 8
  call void @_ZNSaIcEC1Ev(ptr noundef nonnull align 1 dereferenceable(1) %8) #30
  %20 = invoke noundef ptr @_ZNSt7__cxx1112basic_stringIcSt11char_traitsIcESaIcEE13_M_local_dataEv(ptr noundef nonnull align 8 dereferenceable(32) %7)
          to label %.noexc12 unwind label %40

.noexc12:                                         ; preds = %18
  invoke void @_ZNSt7__cxx1112basic_stringIcSt11char_traitsIcESaIcEE12_Alloc_hiderC1EPcRKS3_(ptr noundef nonnull align 8 dereferenceable(8) %7, ptr noundef %20, ptr noundef nonnull align 1 dereferenceable(1) %8)
          to label %.noexc13 unwind label %40

.noexc13:                                         ; preds = %.noexc12
  %21 = icmp eq ptr %1, null
  br i1 %21, label %22, label %26

22:                                               ; preds = %.noexc13
  invoke void @_ZSt19__throw_logic_errorPKc(ptr noundef nonnull @.str.54) #32
          to label %23 unwind label %24

23:                                               ; preds = %22
  unreachable

24:                                               ; preds = %26, %22
  %25 = landingpad { ptr, i32 }
          cleanup
  call void @_ZNSaIcED2Ev(ptr noundef nonnull align 1 dereferenceable(1) %7) #30
  br label %.body14

26:                                               ; preds = %.noexc13
  %27 = call noundef i64 @strlen(ptr noundef nonnull dereferenceable(1) %1) #30
  %28 = getelementptr inbounds i8, ptr %1, i64 %27
  invoke void @_ZNSt7__cxx1112basic_stringIcSt11char_traitsIcESaIcEE12_M_constructIPKcEEvT_S8_St20forward_iterator_tag(ptr noundef nonnull align 8 dereferenceable(32) %7, ptr noundef nonnull %1, ptr noundef nonnull %28)
          to label %_ZNSt7__cxx1112basic_stringIcSt11char_traitsIcESaIcEEC2IS3_EEPKcRKS3_.exit16 unwind label %24

_ZNSt7__cxx1112basic_stringIcSt11char_traitsIcESaIcEEC2IS3_EEPKcRKS3_.exit16: ; preds = %26
  %29 = getelementptr inbounds i8, ptr %0, i64 72
  %30 = invoke noundef nonnull align 8 dereferenceable(33) ptr @_ZNSt3mapINSt7__cxx1112basic_stringIcSt11char_traitsIcESaIcEEEN7jsonnet8internal5VmExtESt4lessIS5_ESaISt4pairIKS5_S8_EEEixEOS5_(ptr noundef nonnull align 8 dereferenceable(48) %29, ptr noundef nonnull align 8 dereferenceable(32) %7)
          to label %31 unwind label %42

31:                                               ; preds = %_ZNSt7__cxx1112basic_stringIcSt11char_traitsIcESaIcEEC2IS3_EEPKcRKS3_.exit16
  %32 = call noundef nonnull align 8 dereferenceable(32) ptr @_ZNSt7__cxx1112basic_stringIcSt11char_traitsIcESaIcEEaSEOS4_(ptr noundef nonnull align 8 dereferenceable(32) %30, ptr noundef nonnull align 8 dereferenceable(32) %4) #30
  %33 = load i8, ptr %19, align 8
  %34 = getelementptr inbounds i8, ptr %30, i64 32
  %35 = and i8 %33, 1
  store i8 %35, ptr %34, align 8
  call void @_ZNSt7__cxx1112basic_stringIcSt11char_traitsIcESaIcEED1Ev(ptr noundef nonnull align 8 dereferenceable(32) %7) #30
  call void @_ZNSaIcED1Ev(ptr noundef nonnull align 1 dereferenceable(1) %8) #30
  call void @_ZNSt7__cxx1112basic_stringIcSt11char_traitsIcESaIcEED1Ev(ptr noundef nonnull align 8 dereferenceable(32) %4) #30
  call void @_ZNSt7__cxx1112basic_stringIcSt11char_traitsIcESaIcEED1Ev(ptr noundef nonnull align 8 dereferenceable(32) %5) #30
  call void @_ZNSaIcED1Ev(ptr noundef nonnull align 1 dereferenceable(1) %6) #30
  ret void

36:                                               ; preds = %.noexc, %3
  %37 = landingpad { ptr, i32 }
          cleanup
  br label %.body

38:                                               ; preds = %_ZNSt7__cxx1112basic_stringIcSt11char_traitsIcESaIcEEC2IS3_EEPKcRKS3_.exit
  %39 = landingpad { ptr, i32 }
          cleanup
  br label %44

40:                                               ; preds = %.noexc12, %18
  %41 = landingpad { ptr, i32 }
          cleanup
  br label %.body14

42:                                               ; preds = %_ZNSt7__cxx1112basic_stringIcSt11char_traitsIcESaIcEEC2IS3_EEPKcRKS3_.exit16
  %43 = landingpad { ptr, i32 }
          cleanup
  call void @_ZNSt7__cxx1112basic_stringIcSt11char_traitsIcESaIcEED1Ev(ptr noundef nonnull align 8 dereferenceable(32) %7) #30
  br label %.body14

.body14:                                          ; preds = %40, %24, %42
  %.pn = phi { ptr, i32 } [ %43, %42 ], [ %41, %40 ], [ %25, %24 ]
  call void @_ZNSaIcED1Ev(ptr noundef nonnull align 1 dereferenceable(1) %8) #30
  call void @_ZNSt7__cxx1112basic_stringIcSt11char_traitsIcESaIcEED1Ev(ptr noundef nonnull align 8 dereferenceable(32) %4) #30
  br label %44

44:                                               ; preds = %.body14, %38
  %.pn.pn = phi { ptr, i32 } [ %.pn, %.body14 ], [ %39, %38 ]
  call void @_ZNSt7__cxx1112basic_stringIcSt11char_traitsIcESaIcEED1Ev(ptr noundef nonnull align 8 dereferenceable(32) %5) #30
  br label %.body

.body:                                            ; preds = %36, %13, %44
  %.pn.pn.pn = phi { ptr, i32 } [ %.pn.pn, %44 ], [ %37, %36 ], [ %14, %13 ]
  call void @_ZNSaIcED1Ev(ptr noundef nonnull align 1 dereferenceable(1) %6) #30
  resume { ptr, i32 } %.pn.pn.pn
}